target datalayout = "e-m:e-p270:32:32-p271:32:32-p272:64:64-i64:64-i128:128-f80:128-n8:16:32:64-S128"
target triple = "x86_64-pc-linux-gnu"

%struct.dsa_gen_ctx = type { ptr, ptr, i32, i64, i64, ptr, i64, i32, i32, i32, i32, ptr, ptr, ptr, ptr }

@.str = private unnamed_addr constant [57 x i8] c"../openssl/providers/implementations/keymgmt/dsa_kmgmt.c\00", align 1

; Function Attrs: nounwind uwtable
define internal void @dsa_gen_cleanup(ptr noundef %0) #0 {
  %2 = alloca ptr, align 8
  %3 = alloca ptr, align 8
  %4 = alloca i32, align 4
  store ptr %0, ptr %2, align 8, !tbaa !3
  call void @llvm.lifetime.start.p0(i64 8, ptr %3) #7
  %5 = load ptr, ptr %2, align 8, !tbaa !3
  store ptr %5, ptr %3, align 8, !tbaa !13
  %6 = load ptr, ptr %3, align 8, !tbaa !13
  %7 = icmp eq ptr %6, null
  br i1 %7, label %8, label %9

8:                                                ; preds = %1
  store i32 1, ptr %4, align 4
  br label %23

9:                                                ; preds = %1
  %10 = load ptr, ptr %3, align 8, !tbaa !13
  %11 = getelementptr inbounds nuw %struct.dsa_gen_ctx, ptr %10, i32 0, i32 11
  %12 = load ptr, ptr %11, align 8, !tbaa !34
  call void @CRYPTO_free(ptr noundef %12, ptr noundef @.str, i32 noundef 696)
  %13 = load ptr, ptr %3, align 8, !tbaa !13
  %14 = getelementptr inbounds nuw %struct.dsa_gen_ctx, ptr %13, i32 0, i32 12
  %15 = load ptr, ptr %14, align 8, !tbaa !35
  call void @CRYPTO_free(ptr noundef %15, ptr noundef @.str, i32 noundef 697)
  %16 = load ptr, ptr %3, align 8, !tbaa !13
  %17 = getelementptr inbounds nuw %struct.dsa_gen_ctx, ptr %16, i32 0, i32 5
  %18 = load ptr, ptr %17, align 8, !tbaa !41
  %19 = load ptr, ptr %3, align 8, !tbaa !13
  %20 = getelementptr inbounds nuw %struct.dsa_gen_ctx, ptr %19, i32 0, i32 6
  %21 = load i64, ptr %20, align 8, !tbaa !42
  call void @CRYPTO_clear_free(ptr noundef %18, i64 noundef %21, ptr noundef @.str, i32 noundef 698)
  %22 = load ptr, ptr %3, align 8, !tbaa !13
  call void @CRYPTO_free(ptr noundef %22, ptr noundef @.str, i32 noundef 699)
  store i32 0, ptr %4, align 4
  br label %23

23:                                               ; preds = %9, %8
  call void @llvm.lifetime.end.p0(i64 8, ptr %3) #7
  %24 = load i32, ptr %4, align 4
  switch i32 %24, label %26 [
    i32 0, label %25
    i32 1, label %25
  ]

25:                                               ; preds = %23, %23
  ret void

26:                                               ; preds = %23
  unreachable
}